; ModuleID = '45/406.c'
source_filename = "45/406.c"
target datalayout = "e-m:e-p270:32:32-p271:32:32-p272:64:64-i64:64-f80:128-n8:16:32:64-S128"
target triple = "x86_64-pc-linux-gnu"

@.str = private unnamed_addr constant [4 x i8] c"%d\0A\00", align 1

; Function Attrs: noinline nounwind uwtable
define dso_local void @main() #0 {
  %1 = alloca [1000 x i8], align 16
  %2 = alloca i32, align 4
  %3 = alloca i32, align 4
  %4 = alloca i32, align 4
  %5 = alloca i8*, align 8
  %6 = alloca i8*, align 8
  %7 = alloca i8*, align 8
  %8 = alloca i8*, align 8
  store i32 -1, i32* %3, align 4
  %9 = getelementptr inbounds [1000 x i8], [1000 x i8]* %1, i64 0, i64 0
  %10 = call i32 (i8*, ...) bitcast (i32 (...)* @gets to i32 (i8*, ...)*)(i8* %9)
  %11 = getelementptr inbounds [1000 x i8], [1000 x i8]* %1, i64 0, i64 0
  %12 = call i64 @strlen(i8* %11) #3
  %13 = trunc i64 %12 to i32
  store i32 %13, i32* %4, align 4
  %14 = getelementptr inbounds [1000 x i8], [1000 x i8]* %1, i64 0, i64 0
  store i8* %14, i8** %6, align 8
  store i32 0, i32* %2, align 4
  br label %15

15:                                               ; preds = %29, %0
  %16 = load i32, i32* %2, align 4
  %17 = load i32, i32* %4, align 4
  %18 = icmp slt i32 %16, %17
  br i1 %18, label %19, label %34

19:                                               ; preds = %15
  %20 = load i32, i32* %2, align 4
  %21 = sext i32 %20 to i64
  %22 = getelementptr inbounds [1000 x i8], [1000 x i8]* %1, i64 0, i64 %21
  %23 = load i8, i8* %22, align 1
  %24 = sext i8 %23 to i32
  %25 = icmp eq i32 %24, 32
  br i1 %25, label %26, label %28

26:                                               ; preds = %19
  %27 = load i8*, i8** %6, align 8
  store i8* %27, i8** %5, align 8
  br label %34

28:                                               ; preds = %19
  br label %29

29:                                               ; preds = %28
  %30 = load i32, i32* %2, align 4
  %31 = add nsw i32 %30, 1
  store i32 %31, i32* %2, align 4
  %32 = load i8*, i8** %6, align 8
  %33 = getelementptr inbounds i8, i8* %32, i32 1
  store i8* %33, i8** %6, align 8
  br label %15

34:                                               ; preds = %26, %15
  %35 = getelementptr inbounds [1000 x i8], [1000 x i8]* %1, i64 0, i64 0
  store i8* %35, i8** %6, align 8
  %36 = load i8*, i8** %5, align 8
  %37 = getelementptr inbounds i8, i8* %36, i64 1
  store i8* %37, i8** %7, align 8
  br label %38

38:                                               ; preds = %86, %34
  %39 = load i8*, i8** %7, align 8
  %40 = load i8, i8* %39, align 1
  %41 = sext i8 %40 to i32
  %42 = icmp ne i32 %41, 0
  br i1 %42, label %43, label %89

43:                                               ; preds = %38
  %44 = load i32, i32* %3, align 4
  %45 = add nsw i32 %44, 1
  store i32 %45, i32* %3, align 4
  %46 = load i8*, i8** %7, align 8
  %47 = load i8, i8* %46, align 1
  %48 = sext i8 %47 to i32
  %49 = load i8*, i8** %6, align 8
  %50 = load i8, i8* %49, align 1
  %51 = sext i8 %50 to i32
  %52 = icmp eq i32 %48, %51
  br i1 %52, label %53, label %85

53:                                               ; preds = %43
  %54 = load i8*, i8** %7, align 8
  store i8* %54, i8** %8, align 8
  br label %55

55:                                               ; preds = %79, %53
  %56 = load i8*, i8** %6, align 8
  %57 = load i8*, i8** %5, align 8
  %58 = icmp ult i8* %56, %57
  br i1 %58, label %59, label %84

59:                                               ; preds = %55
  %60 = load i8*, i8** %6, align 8
  %61 = load i8, i8* %60, align 1
  %62 = sext i8 %61 to i32
  %63 = load i8*, i8** %8, align 8
  %64 = load i8, i8* %63, align 1
  %65 = sext i8 %64 to i32
  %66 = icmp ne i32 %62, %65
  br i1 %66, label %67, label %69

67:                                               ; preds = %59
  %68 = getelementptr inbounds [1000 x i8], [1000 x i8]* %1, i64 0, i64 0
  store i8* %68, i8** %6, align 8
  br label %84

69:                                               ; preds = %59
  %70 = load i8*, i8** %6, align 8
  %71 = load i8*, i8** %5, align 8
  %72 = getelementptr inbounds i8, i8* %71, i64 -1
  %73 = icmp eq i8* %70, %72
  br i1 %73, label %74, label %77

74:                                               ; preds = %69
  %75 = load i32, i32* %3, align 4
  %76 = call i32 (i8*, ...) @printf(i8* getelementptr inbounds ([4 x i8], [4 x i8]* @.str, i64 0, i64 0), i32 %75)
  br label %77

77:                                               ; preds = %74, %69
  br label %78

78:                                               ; preds = %77
  br label %79

79:                                               ; preds = %78
  %80 = load i8*, i8** %6, align 8
  %81 = getelementptr inbounds i8, i8* %80, i32 1
  store i8* %81, i8** %6, align 8
  %82 = load i8*, i8** %8, align 8
  %83 = getelementptr inbounds i8, i8* %82, i32 1
  store i8* %83, i8** %8, align 8
  br label %55

84:                                               ; preds = %67, %55
  br label %85

85:                                               ; preds = %84, %43
  br label %86

86:                                               ; preds = %85
  %87 = load i8*, i8** %7, align 8
  %88 = getelementptr inbounds i8, i8* %87, i32 1
  store i8* %88, i8** %7, align 8
  br label %38

89:                                               ; preds = %38
  ret void
}

declare dso_local i32 @gets(...) #1

; Function Attrs: nounwind readonly
declare dso_local i64 @strlen(i8*) #2

declare dso_local i32 @printf(i8*, ...) #1


!llvm.module.flags = !{!0}
!llvm.ident = !{!1}

!0 = !{i32 1, !"wchar_size", i32 4}
!1 = !{!"clang version 10.0.0-4ubuntu1 "}
